target datalayout = "e-m:e-p270:32:32-p271:32:32-p272:64:64-i64:64-i128:128-f80:128-n8:16:32:64-S128"
target triple = "x86_64-pc-linux-gnu"

%struct.Rwt_Man_t_ = type { i32, ptr, ptr, ptr, ptr, ptr, ptr, ptr, ptr, ptr, ptr, ptr, i32, i32, i32, i32, i32, ptr, ptr, ptr, ptr, ptr, ptr, ptr, i32, i32, i32, [222 x i32], i32, i32, i32, i64, i64, i64, i64, i64, i64, i64, i64 }

@.str = private unnamed_addr constant [23 x i8] c"Rewriting statistics:\0A\00", align 1
@.str.1 = private unnamed_addr constant [26 x i8] c"Total cuts tries  = %8d.\0A\00", align 1
@.str.2 = private unnamed_addr constant [26 x i8] c"Bad cuts found    = %8d.\0A\00", align 1
@.str.3 = private unnamed_addr constant [26 x i8] c"Total subgraphs   = %8d.\0A\00", align 1
@.str.4 = private unnamed_addr constant [26 x i8] c"Used NPN classes  = %8d.\0A\00", align 1
@.str.5 = private unnamed_addr constant [26 x i8] c"Nodes considered  = %8d.\0A\00", align 1
@.str.6 = private unnamed_addr constant [26 x i8] c"Nodes rewritten   = %8d.\0A\00", align 1
@.str.7 = private unnamed_addr constant [26 x i8] c"Calculated gain   = %8d.\0A\00", align 1
@.str.8 = private unnamed_addr constant [5 x i8] c"%s =\00", align 1
@.str.9 = private unnamed_addr constant [13 x i8] c"Start       \00", align 1
@.str.10 = private unnamed_addr constant [11 x i8] c"%9.2f sec\0A\00", align 1
@.str.11 = private unnamed_addr constant [13 x i8] c"Cuts        \00", align 1
@.str.12 = private unnamed_addr constant [13 x i8] c"Truth       \00", align 1
@.str.13 = private unnamed_addr constant [13 x i8] c"Resynthesis \00", align 1
@.str.14 = private unnamed_addr constant [13 x i8] c"    Mffc    \00", align 1
@.str.15 = private unnamed_addr constant [13 x i8] c"    Eval    \00", align 1
@.str.16 = private unnamed_addr constant [13 x i8] c"Update      \00", align 1
@.str.17 = private unnamed_addr constant [13 x i8] c"TOTAL       \00", align 1

; Function Attrs: nounwind uwtable
define void @Rwt_ManPrintStats(ptr noundef %0) #0 {
  %2 = alloca ptr, align 8
  %3 = alloca i32, align 4
  %4 = alloca i32, align 4
  store ptr %0, ptr %2, align 8, !tbaa !14
  call void @llvm.lifetime.start.p0(i64 4, ptr %3) #9
  call void @llvm.lifetime.start.p0(i64 4, ptr %4) #9
  store i32 0, ptr %4, align 4, !tbaa !10
  store i32 0, ptr %3, align 4, !tbaa !10
  br label %5

5:                                                ; preds = %19, %1
  %6 = load i32, ptr %3, align 4, !tbaa !10
  %7 = icmp slt i32 %6, 222
  br i1 %7, label %8, label %22

8:                                                ; preds = %5
  %9 = load ptr, ptr %2, align 8, !tbaa !14
  %10 = getelementptr inbounds nuw %struct.Rwt_Man_t_, ptr %9, i32 0, i32 27
  %11 = load i32, ptr %3, align 4, !tbaa !10
  %12 = sext i32 %11 to i64
  %13 = getelementptr inbounds [222 x i32], ptr %10, i64 0, i64 %12
  %14 = load i32, ptr %13, align 4, !tbaa !10
  %15 = icmp sgt i32 %14, 0
  %16 = zext i1 %15 to i32
  %17 = load i32, ptr %4, align 4, !tbaa !10
  %18 = add nsw i32 %17, %16
  store i32 %18, ptr %4, align 4, !tbaa !10
  br label %19

19:                                               ; preds = %8
  %20 = load i32, ptr %3, align 4, !tbaa !10
  %21 = add nsw i32 %20, 1
  store i32 %21, ptr %3, align 4, !tbaa !10
  br label %5, !llvm.loop !72

22:                                               ; preds = %5
  %23 = call i32 (ptr, ...) @printf(ptr noundef @.str)
  %24 = load ptr, ptr %2, align 8, !tbaa !14
  %25 = getelementptr inbounds nuw %struct.Rwt_Man_t_, ptr %24, i32 0, i32 28
  %26 = load i32, ptr %25, align 4, !tbaa !73
  %27 = call i32 (ptr, ...) @printf(ptr noundef @.str.1, i32 noundef %26)
  %28 = load ptr, ptr %2, align 8, !tbaa !14
  %29 = getelementptr inbounds nuw %struct.Rwt_Man_t_, ptr %28, i32 0, i32 29
  %30 = load i32, ptr %29, align 8, !tbaa !74
  %31 = call i32 (ptr, ...) @printf(ptr noundef @.str.2, i32 noundef %30)
  %32 = load ptr, ptr %2, align 8, !tbaa !14
  %33 = getelementptr inbounds nuw %struct.Rwt_Man_t_, ptr %32, i32 0, i32 30
  %34 = load i32, ptr %33, align 4, !tbaa !75
  %35 = call i32 (ptr, ...) @printf(ptr noundef @.str.3, i32 noundef %34)
  %36 = load i32, ptr %4, align 4, !tbaa !10
  %37 = call i32 (ptr, ...) @printf(ptr noundef @.str.4, i32 noundef %36)
  %38 = load ptr, ptr %2, align 8, !tbaa !14
  %39 = getelementptr inbounds nuw %struct.Rwt_Man_t_, ptr %38, i32 0, i32 24
  %40 = load i32, ptr %39, align 8, !tbaa !76
  %41 = call i32 (ptr, ...) @printf(ptr noundef @.str.5, i32 noundef %40)
  %42 = load ptr, ptr %2, align 8, !tbaa !14
  %43 = getelementptr inbounds nuw %struct.Rwt_Man_t_, ptr %42, i32 0, i32 25
  %44 = load i32, ptr %43, align 4, !tbaa !77
  %45 = call i32 (ptr, ...) @printf(ptr noundef @.str.6, i32 noundef %44)
  %46 = load ptr, ptr %2, align 8, !tbaa !14
  %47 = getelementptr inbounds nuw %struct.Rwt_Man_t_, ptr %46, i32 0, i32 26
  %48 = load i32, ptr %47, align 8, !tbaa !78
  %49 = call i32 (ptr, ...) @printf(ptr noundef @.str.7, i32 noundef %48)
  call void (i32, ptr, ...) @Abc_Print(i32 noundef 1, ptr noundef @.str.8, ptr noundef @.str.9)
  %50 = load ptr, ptr %2, align 8, !tbaa !14
  %51 = getelementptr inbounds nuw %struct.Rwt_Man_t_, ptr %50, i32 0, i32 31
  %52 = load i64, ptr %51, align 8, !tbaa !39
  %53 = sitofp i64 %52 to double
  %54 = fmul double 1.000000e+00, %53
  %55 = fdiv double %54, 1.000000e+06
  call void (i32, ptr, ...) @Abc_Print(i32 noundef 1, ptr noundef @.str.10, double noundef %55)
  call void (i32, ptr, ...) @Abc_Print(i32 noundef 1, ptr noundef @.str.8, ptr noundef @.str.11)
  %56 = load ptr, ptr %2, align 8, !tbaa !14
  %57 = getelementptr inbounds nuw %struct.Rwt_Man_t_, ptr %56, i32 0, i32 33
  %58 = load i64, ptr %57, align 8, !tbaa !79
  %59 = sitofp i64 %58 to double
  %60 = fmul double 1.000000e+00, %59
  %61 = fdiv double %60, 1.000000e+06
  call void (i32, ptr, ...) @Abc_Print(i32 noundef 1, ptr noundef @.str.10, double noundef %61)
  call void (i32, ptr, ...) @Abc_Print(i32 noundef 1, ptr noundef @.str.8, ptr noundef @.str.12)
  %62 = load ptr, ptr %2, align 8, !tbaa !14
  %63 = getelementptr inbounds nuw %struct.Rwt_Man_t_, ptr %62, i32 0, i32 32
  %64 = load i64, ptr %63, align 8, !tbaa !80
  %65 = sitofp i64 %64 to double
  %66 = fmul double 1.000000e+00, %65
  %67 = fdiv double %66, 1.000000e+06
  call void (i32, ptr, ...) @Abc_Print(i32 noundef 1, ptr noundef @.str.10, double noundef %67)
  call void (i32, ptr, ...) @Abc_Print(i32 noundef 1, ptr noundef @.str.8, ptr noundef @.str.13)
  %68 = load ptr, ptr %2, align 8, !tbaa !14
  %69 = getelementptr inbounds nuw %struct.Rwt_Man_t_, ptr %68, i32 0, i32 34
  %70 = load i64, ptr %69, align 8, !tbaa !81
  %71 = sitofp i64 %70 to double
  %72 = fmul double 1.000000e+00, %71
  %73 = fdiv double %72, 1.000000e+06
  call void (i32, ptr, ...) @Abc_Print(i32 noundef 1, ptr noundef @.str.10, double noundef %73)
  call void (i32, ptr, ...) @Abc_Print(i32 noundef 1, ptr noundef @.str.8, ptr noundef @.str.14)
  %74 = load ptr, ptr %2, align 8, !tbaa !14
  %75 = getelementptr inbounds nuw %struct.Rwt_Man_t_, ptr %74, i32 0, i32 36
  %76 = load i64, ptr %75, align 8, !tbaa !82
  %77 = sitofp i64 %76 to double
  %78 = fmul double 1.000000e+00, %77
  %79 = fdiv double %78, 1.000000e+06
  call void (i32, ptr, ...) @Abc_Print(i32 noundef 1, ptr noundef @.str.10, double noundef %79)
  call void (i32, ptr, ...) @Abc_Print(i32 noundef 1, ptr noundef @.str.8, ptr noundef @.str.15)
  %80 = load ptr, ptr %2, align 8, !tbaa !14
  %81 = getelementptr inbounds nuw %struct.Rwt_Man_t_, ptr %80, i32 0, i32 35
  %82 = load i64, ptr %81, align 8, !tbaa !83
  %83 = sitofp i64 %82 to double
  %84 = fmul double 1.000000e+00, %83
  %85 = fdiv double %84, 1.000000e+06
  call void (i32, ptr, ...) @Abc_Print(i32 noundef 1, ptr noundef @.str.10, double noundef %85)
  call void (i32, ptr, ...) @Abc_Print(i32 noundef 1, ptr noundef @.str.8, ptr noundef @.str.16)
  %86 = load ptr, ptr %2, align 8, !tbaa !14
  %87 = getelementptr inbounds nuw %struct.Rwt_Man_t_, ptr %86, i32 0, i32 37
  %88 = load i64, ptr %87, align 8, !tbaa !84
  %89 = sitofp i64 %88 to double
  %90 = fmul double 1.000000e+00, %89
  %91 = fdiv double %90, 1.000000e+06
  call void (i32, ptr, ...) @Abc_Print(i32 noundef 1, ptr noundef @.str.10, double noundef %91)
  call void (i32, ptr, ...) @Abc_Print(i32 noundef 1, ptr noundef @.str.8, ptr noundef @.str.17)
  %92 = load ptr, ptr %2, align 8, !tbaa !14
  %93 = getelementptr inbounds nuw %struct.Rwt_Man_t_, ptr %92, i32 0, i32 38
  %94 = load i64, ptr %93, align 8, !tbaa !85
  %95 = sitofp i64 %94 to double
  %96 = fmul double 1.000000e+00, %95
  %97 = fdiv double %96, 1.000000e+06
  call void (i32, ptr, ...) @Abc_Print(i32 noundef 1, ptr noundef @.str.10, double noundef %97)
  call void @llvm.lifetime.end.p0(i64 4, ptr %4) #9
  call void @llvm.lifetime.end.p0(i64 4, ptr %3) #9
  ret void
}