; Function Attrs: nounwind uwtable
define void @Rwt_ManPrintStats(ptr noundef readonly captures(none) %0) local_unnamed_addr #0 {
  %2 = getelementptr inbounds nuw i8, ptr %0, i64 188
  br label %3

3:                                                ; preds = %1, %3
  %indvars.iv = phi i64 [ 0, %1 ], [ %indvars.iv.next, %3 ]
  %.021 = phi i32 [ 0, %1 ], [ %8, %3 ]
  %4 = getelementptr inbounds nuw [222 x i32], ptr %2, i64 0, i64 %indvars.iv
  %5 = load i32, ptr %4, align 4, !tbaa !65
  %6 = icmp sgt i32 %5, 0
  %7 = zext i1 %6 to i32
  %8 = add nuw nsw i32 %.021, %7
  %indvars.iv.next = add nuw nsw i64 %indvars.iv, 1
  %exitcond.not = icmp eq i64 %indvars.iv.next, 222
  br i1 %exitcond.not, label %9, label %3, !llvm.loop !66

9:                                                ; preds = %3
  %puts = tail call i32 @puts(ptr nonnull dereferenceable(1) @str)
  %10 = getelementptr inbounds nuw i8, ptr %0, i64 1076
  %11 = load i32, ptr %10, align 4, !tbaa !67
  %12 = tail call i32 (ptr, ...) @printf(ptr noundef nonnull dereferenceable(1) @.str.1, i32 noundef %11)
  %13 = getelementptr inbounds nuw i8, ptr %0, i64 1080
  %14 = load i32, ptr %13, align 8, !tbaa !68
  %15 = tail call i32 (ptr, ...) @printf(ptr noundef nonnull dereferenceable(1) @.str.2, i32 noundef %14)
  %16 = getelementptr inbounds nuw i8, ptr %0, i64 1084
  %17 = load i32, ptr %16, align 4, !tbaa !69
  %18 = tail call i32 (ptr, ...) @printf(ptr noundef nonnull dereferenceable(1) @.str.3, i32 noundef %17)
  %19 = tail call i32 (ptr, ...) @printf(ptr noundef nonnull dereferenceable(1) @.str.4, i32 noundef %8)
  %20 = getelementptr inbounds nuw i8, ptr %0, i64 176
  %21 = load i32, ptr %20, align 8, !tbaa !70
  %22 = tail call i32 (ptr, ...) @printf(ptr noundef nonnull dereferenceable(1) @.str.5, i32 noundef %21)
  %23 = getelementptr inbounds nuw i8, ptr %0, i64 180
  %24 = load i32, ptr %23, align 4, !tbaa !71
  %25 = tail call i32 (ptr, ...) @printf(ptr noundef nonnull dereferenceable(1) @.str.6, i32 noundef %24)
  %26 = getelementptr inbounds nuw i8, ptr %0, i64 184
  %27 = load i32, ptr %26, align 8, !tbaa !72
  %28 = tail call i32 (ptr, ...) @printf(ptr noundef nonnull dereferenceable(1) @.str.7, i32 noundef %27)
  tail call void (i32, ptr, ...) @Abc_Print(i32 poison, ptr noundef nonnull @.str.8, ptr noundef nonnull @.str.9)
  %29 = getelementptr inbounds nuw i8, ptr %0, i64 1088
  %30 = load i64, ptr %29, align 8, !tbaa !47
  %31 = sitofp i64 %30 to double
  %32 = fdiv double %31, 1.000000e+06
  tail call void (i32, ptr, ...) @Abc_Print(i32 poison, ptr noundef nonnull @.str.10, double noundef %32)
  tail call void (i32, ptr, ...) @Abc_Print(i32 poison, ptr noundef nonnull @.str.8, ptr noundef nonnull @.str.11)
  %33 = getelementptr inbounds nuw i8, ptr %0, i64 1104
  %34 = load i64, ptr %33, align 8, !tbaa !73
  %35 = sitofp i64 %34 to double
  %36 = fdiv double %35, 1.000000e+06
  tail call void (i32, ptr, ...) @Abc_Print(i32 poison, ptr noundef nonnull @.str.10, double noundef %36)
  tail call void (i32, ptr, ...) @Abc_Print(i32 poison, ptr noundef nonnull @.str.8, ptr noundef nonnull @.str.12)
  %37 = getelementptr inbounds nuw i8, ptr %0, i64 1096
  %38 = load i64, ptr %37, align 8, !tbaa !74
  %39 = sitofp i64 %38 to double
  %40 = fdiv double %39, 1.000000e+06
  tail call void (i32, ptr, ...) @Abc_Print(i32 poison, ptr noundef nonnull @.str.10, double noundef %40)
  tail call void (i32, ptr, ...) @Abc_Print(i32 poison, ptr noundef nonnull @.str.8, ptr noundef nonnull @.str.13)
  %41 = getelementptr inbounds nuw i8, ptr %0, i64 1112
  %42 = load i64, ptr %41, align 8, !tbaa !75
  %43 = sitofp i64 %42 to double
  %44 = fdiv double %43, 1.000000e+06
  tail call void (i32, ptr, ...) @Abc_Print(i32 poison, ptr noundef nonnull @.str.10, double noundef %44)
  tail call void (i32, ptr, ...) @Abc_Print(i32 poison, ptr noundef nonnull @.str.8, ptr noundef nonnull @.str.14)
  %45 = getelementptr inbounds nuw i8, ptr %0, i64 1128
  %46 = load i64, ptr %45, align 8, !tbaa !76
  %47 = sitofp i64 %46 to double
  %48 = fdiv double %47, 1.000000e+06
  tail call void (i32, ptr, ...) @Abc_Print(i32 poison, ptr noundef nonnull @.str.10, double noundef %48)
  tail call void (i32, ptr, ...) @Abc_Print(i32 poison, ptr noundef nonnull @.str.8, ptr noundef nonnull @.str.15)
  %49 = getelementptr inbounds nuw i8, ptr %0, i64 1120
  %50 = load i64, ptr %49, align 8, !tbaa !77
  %51 = sitofp i64 %50 to double
  %52 = fdiv double %51, 1.000000e+06
  tail call void (i32, ptr, ...) @Abc_Print(i32 poison, ptr noundef nonnull @.str.10, double noundef %52)
  tail call void (i32, ptr, ...) @Abc_Print(i32 poison, ptr noundef nonnull @.str.8, ptr noundef nonnull @.str.16)
  %53 = getelementptr inbounds nuw i8, ptr %0, i64 1136
  %54 = load i64, ptr %53, align 8, !tbaa !78
  %55 = sitofp i64 %54 to double
  %56 = fdiv double %55, 1.000000e+06
  tail call void (i32, ptr, ...) @Abc_Print(i32 poison, ptr noundef nonnull @.str.10, double noundef %56)
  tail call void (i32, ptr, ...) @Abc_Print(i32 poison, ptr noundef nonnull @.str.8, ptr noundef nonnull @.str.17)
  %57 = getelementptr inbounds nuw i8, ptr %0, i64 1144
  %58 = load i64, ptr %57, align 8, !tbaa !79
  %59 = sitofp i64 %58 to double
  %60 = fdiv double %59, 1.000000e+06
  tail call void (i32, ptr, ...) @Abc_Print(i32 poison, ptr noundef nonnull @.str.10, double noundef %60)
  ret void
}